; ModuleID = '12/1564.c'
source_filename = "12/1564.c"
target datalayout = "e-m:e-p270:32:32-p271:32:32-p272:64:64-i64:64-f80:128-n8:16:32:64-S128"
target triple = "x86_64-pc-linux-gnu"

@.str = private unnamed_addr constant [4 x i8] c"%d\0A\00", align 1

; Function Attrs: noinline nounwind uwtable
define dso_local i32 @main() #0 {
  %1 = alloca i32, align 4
  %2 = alloca [100 x i8], align 16
  %3 = alloca i32, align 4
  %4 = alloca i32, align 4
  %5 = alloca i32, align 4
  %6 = alloca i32, align 4
  %7 = alloca [15 x i32], align 16
  %8 = alloca i32, align 4
  store i32 0, i32* %1, align 4
  br label %9

9:                                                ; preds = %136, %0
  %10 = getelementptr inbounds [100 x i8], [100 x i8]* %2, i64 0, i64 0
  %11 = call i32 (i8*, ...) bitcast (i32 (...)* @gets to i32 (i8*, ...)*)(i8* %10)
  store i32 0, i32* %5, align 4
  store i32 0, i32* %6, align 4
  store i32 0, i32* %8, align 4
  %12 = getelementptr inbounds [100 x i8], [100 x i8]* %2, i64 0, i64 0
  %13 = load i8, i8* %12, align 16
  %14 = sext i8 %13 to i32
  %15 = icmp eq i32 %14, 45
  br i1 %15, label %16, label %22

16:                                               ; preds = %9
  %17 = getelementptr inbounds [100 x i8], [100 x i8]* %2, i64 0, i64 1
  %18 = load i8, i8* %17, align 1
  %19 = sext i8 %18 to i32
  %20 = icmp eq i32 %19, 49
  br i1 %20, label %21, label %22

21:                                               ; preds = %16
  br label %139

22:                                               ; preds = %16, %9
  store i32 0, i32* %3, align 4
  br label %23

23:                                               ; preds = %65, %22
  %24 = load i32, i32* %3, align 4
  %25 = sext i32 %24 to i64
  %26 = getelementptr inbounds [100 x i8], [100 x i8]* %2, i64 0, i64 %25
  %27 = load i8, i8* %26, align 1
  %28 = sext i8 %27 to i32
  %29 = icmp eq i32 %28, 48
  br i1 %29, label %30, label %31

30:                                               ; preds = %23
  br label %68

31:                                               ; preds = %23
  %32 = load i32, i32* %3, align 4
  %33 = sext i32 %32 to i64
  %34 = getelementptr inbounds [100 x i8], [100 x i8]* %2, i64 0, i64 %33
  %35 = load i8, i8* %34, align 1
  %36 = sext i8 %35 to i32
  %37 = icmp sle i32 49, %36
  br i1 %37, label %38, label %56

38:                                               ; preds = %31
  %39 = load i32, i32* %3, align 4
  %40 = sext i32 %39 to i64
  %41 = getelementptr inbounds [100 x i8], [100 x i8]* %2, i64 0, i64 %40
  %42 = load i8, i8* %41, align 1
  %43 = sext i8 %42 to i32
  %44 = icmp sle i32 %43, 57
  br i1 %44, label %45, label %56

45:                                               ; preds = %38
  %46 = load i32, i32* %3, align 4
  %47 = sext i32 %46 to i64
  %48 = getelementptr inbounds [100 x i8], [100 x i8]* %2, i64 0, i64 %47
  %49 = load i8, i8* %48, align 1
  %50 = sext i8 %49 to i32
  %51 = sub nsw i32 %50, 48
  store i32 %51, i32* %4, align 4
  %52 = load i32, i32* %5, align 4
  %53 = mul nsw i32 %52, 10
  %54 = load i32, i32* %4, align 4
  %55 = add nsw i32 %53, %54
  store i32 %55, i32* %5, align 4
  br label %63

56:                                               ; preds = %38, %31
  %57 = load i32, i32* %5, align 4
  %58 = load i32, i32* %6, align 4
  %59 = sext i32 %58 to i64
  %60 = getelementptr inbounds [15 x i32], [15 x i32]* %7, i64 0, i64 %59
  store i32 %57, i32* %60, align 4
  %61 = load i32, i32* %6, align 4
  %62 = add nsw i32 %61, 1
  store i32 %62, i32* %6, align 4
  store i32 0, i32* %5, align 4
  br label %63

63:                                               ; preds = %56, %45
  br label %64

64:                                               ; preds = %63
  br label %65

65:                                               ; preds = %64
  %66 = load i32, i32* %3, align 4
  %67 = add nsw i32 %66, 1
  store i32 %67, i32* %3, align 4
  br label %23

68:                                               ; preds = %30
  br label %69

69:                                               ; preds = %68
  store i32 0, i32* %3, align 4
  br label %70

70:                                               ; preds = %133, %69
  %71 = load i32, i32* %3, align 4
  %72 = load i32, i32* %6, align 4
  %73 = icmp slt i32 %71, %72
  br i1 %73, label %74, label %136

74:                                               ; preds = %70
  %75 = load i32, i32* %3, align 4
  %76 = add nsw i32 %75, 1
  store i32 %76, i32* %4, align 4
  br label %77

77:                                               ; preds = %129, %74
  %78 = load i32, i32* %4, align 4
  %79 = load i32, i32* %6, align 4
  %80 = icmp slt i32 %78, %79
  br i1 %80, label %81, label %132

81:                                               ; preds = %77
  %82 = load i32, i32* %3, align 4
  %83 = sext i32 %82 to i64
  %84 = getelementptr inbounds [15 x i32], [15 x i32]* %7, i64 0, i64 %83
  %85 = load i32, i32* %84, align 4
  %86 = load i32, i32* %4, align 4
  %87 = sext i32 %86 to i64
  %88 = getelementptr inbounds [15 x i32], [15 x i32]* %7, i64 0, i64 %87
  %89 = load i32, i32* %88, align 4
  %90 = sdiv i32 %85, %89
  %91 = icmp eq i32 %90, 2
  br i1 %91, label %92, label %103

92:                                               ; preds = %81
  %93 = load i32, i32* %3, align 4
  %94 = sext i32 %93 to i64
  %95 = getelementptr inbounds [15 x i32], [15 x i32]* %7, i64 0, i64 %94
  %96 = load i32, i32* %95, align 4
  %97 = load i32, i32* %4, align 4
  %98 = sext i32 %97 to i64
  %99 = getelementptr inbounds [15 x i32], [15 x i32]* %7, i64 0, i64 %98
  %100 = load i32, i32* %99, align 4
  %101 = srem i32 %96, %100
  %102 = icmp eq i32 %101, 0
  br i1 %102, label %125, label %103

103:                                              ; preds = %92, %81
  %104 = load i32, i32* %4, align 4
  %105 = sext i32 %104 to i64
  %106 = getelementptr inbounds [15 x i32], [15 x i32]* %7, i64 0, i64 %105
  %107 = load i32, i32* %106, align 4
  %108 = load i32, i32* %3, align 4
  %109 = sext i32 %108 to i64
  %110 = getelementptr inbounds [15 x i32], [15 x i32]* %7, i64 0, i64 %109
  %111 = load i32, i32* %110, align 4
  %112 = sdiv i32 %107, %111
  %113 = icmp eq i32 %112, 2
  br i1 %113, label %114, label %128

114:                                              ; preds = %103
  %115 = load i32, i32* %4, align 4
  %116 = sext i32 %115 to i64
  %117 = getelementptr inbounds [15 x i32], [15 x i32]* %7, i64 0, i64 %116
  %118 = load i32, i32* %117, align 4
  %119 = load i32, i32* %3, align 4
  %120 = sext i32 %119 to i64
  %121 = getelementptr inbounds [15 x i32], [15 x i32]* %7, i64 0, i64 %120
  %122 = load i32, i32* %121, align 4
  %123 = srem i32 %118, %122
  %124 = icmp eq i32 %123, 0
  br i1 %124, label %125, label %128

125:                                              ; preds = %114, %92
  %126 = load i32, i32* %8, align 4
  %127 = add nsw i32 %126, 1
  store i32 %127, i32* %8, align 4
  br label %128

128:                                              ; preds = %125, %114, %103
  br label %129

129:                                              ; preds = %128
  %130 = load i32, i32* %4, align 4
  %131 = add nsw i32 %130, 1
  store i32 %131, i32* %4, align 4
  br label %77

132:                                              ; preds = %77
  br label %133

133:                                              ; preds = %132
  %134 = load i32, i32* %3, align 4
  %135 = add nsw i32 %134, 1
  store i32 %135, i32* %3, align 4
  br label %70

136:                                              ; preds = %70
  %137 = load i32, i32* %8, align 4
  %138 = call i32 (i8*, ...) @printf(i8* getelementptr inbounds ([4 x i8], [4 x i8]* @.str, i64 0, i64 0), i32 %137)
  br label %9

139:                                              ; preds = %21
  ret i32 0
}

declare dso_local i32 @gets(...) #1

declare dso_local i32 @printf(i8*, ...) #1


!llvm.module.flags = !{!0}
!llvm.ident = !{!1}

!0 = !{i32 1, !"wchar_size", i32 4}
!1 = !{!"clang version 10.0.0-4ubuntu1 "}
